target datalayout = "e-m:e-p270:32:32-p271:32:32-p272:64:64-i64:64-i128:128-f80:128-n8:16:32:64-S128"
target triple = "x86_64-pc-linux-gnu"

%struct.meshopt_Bounds = type { [3 x float], float, [3 x float], [3 x float], float, [3 x i8], i8 }

; Function Attrs: mustprogress uwtable
define dso_local void @meshopt_computeMeshletBounds(ptr dead_on_unwind noalias writable sret(%struct.meshopt_Bounds) align 4 %0, ptr noundef %1, ptr noundef %2, i64 noundef %3, ptr noundef %4, i64 noundef %5, i64 noundef %6) #2 {
  %8 = alloca ptr, align 8
  %9 = alloca ptr, align 8
  %10 = alloca i64, align 8
  %11 = alloca ptr, align 8
  %12 = alloca i64, align 8
  %13 = alloca i64, align 8
  %14 = alloca [1536 x i32], align 16
  %15 = alloca i64, align 8
  %16 = alloca i32, align 4
  store ptr %1, ptr %8, align 8, !tbaa !11
  store ptr %2, ptr %9, align 8, !tbaa !13
  store i64 %3, ptr %10, align 8, !tbaa !4
  store ptr %4, ptr %11, align 8, !tbaa !15
  store i64 %5, ptr %12, align 8, !tbaa !4
  store i64 %6, ptr %13, align 8, !tbaa !4
  call void @llvm.lifetime.start.p0(i64 6144, ptr %14) #11
  call void @llvm.lifetime.start.p0(i64 8, ptr %15) #11
  store i64 0, ptr %15, align 8, !tbaa !4
  br label %17

17:                                               ; preds = %35, %7
  %18 = load i64, ptr %15, align 8, !tbaa !4
  %19 = load i64, ptr %10, align 8, !tbaa !4
  %20 = mul i64 %19, 3
  %21 = icmp ult i64 %18, %20
  br i1 %21, label %23, label %22

22:                                               ; preds = %17
  call void @llvm.lifetime.end.p0(i64 8, ptr %15) #11
  br label %38

23:                                               ; preds = %17
  call void @llvm.lifetime.start.p0(i64 4, ptr %16) #11
  %24 = load ptr, ptr %8, align 8, !tbaa !11
  %25 = load ptr, ptr %9, align 8, !tbaa !13
  %26 = load i64, ptr %15, align 8, !tbaa !4
  %27 = getelementptr inbounds nuw i8, ptr %25, i64 %26
  %28 = load i8, ptr %27, align 1, !tbaa !31
  %29 = zext i8 %28 to i64
  %30 = getelementptr inbounds nuw i32, ptr %24, i64 %29
  %31 = load i32, ptr %30, align 4, !tbaa !23
  store i32 %31, ptr %16, align 4, !tbaa !23
  %32 = load i32, ptr %16, align 4, !tbaa !23
  %33 = load i64, ptr %15, align 8, !tbaa !4
  %34 = getelementptr inbounds nuw [1536 x i32], ptr %14, i64 0, i64 %33
  store i32 %32, ptr %34, align 4, !tbaa !23
  call void @llvm.lifetime.end.p0(i64 4, ptr %16) #11
  br label %35

35:                                               ; preds = %23
  %36 = load i64, ptr %15, align 8, !tbaa !4
  %37 = add i64 %36, 1
  store i64 %37, ptr %15, align 8, !tbaa !4
  br label %17, !llvm.loop !91

38:                                               ; preds = %22
  %39 = getelementptr inbounds [1536 x i32], ptr %14, i64 0, i64 0
  %40 = load i64, ptr %10, align 8, !tbaa !4
  %41 = mul i64 %40, 3
  %42 = load ptr, ptr %11, align 8, !tbaa !15
  %43 = load i64, ptr %12, align 8, !tbaa !4
  %44 = load i64, ptr %13, align 8, !tbaa !4
  call void @meshopt_computeClusterBounds(ptr dead_on_unwind writable sret(%struct.meshopt_Bounds) align 4 %0, ptr noundef %39, i64 noundef %41, ptr noundef %42, i64 noundef %43, i64 noundef %44)
  call void @llvm.lifetime.end.p0(i64 6144, ptr %14) #11
  ret void
}