; Function Attrs: mustprogress nofree nounwind memory(write, argmem: readwrite) uwtable
define dso_local void @meshopt_computeMeshletBounds(ptr dead_on_unwind noalias writable writeonly sret(%struct.meshopt_Bounds) align 4 captures(none) %0, ptr noundef readonly captures(none) %1, ptr noundef readonly captures(none) %2, i64 noundef %3, ptr noundef readonly captures(none) %4, i64 noundef %5, i64 noundef %6) local_unnamed_addr #10 {
  %8 = alloca [1536 x i32], align 16
  call void @llvm.lifetime.start.p0(i64 6144, ptr nonnull %8) #17
  %9 = mul i64 %3, 3
  %.not = icmp eq i64 %3, 0
  br i1 %.not, label %._crit_edge, label %.lr.ph.preheader

.lr.ph.preheader:                                 ; preds = %7
  %umax = tail call i64 @llvm.umax.i64(i64 %9, i64 1)
  br label %.lr.ph

._crit_edge:                                      ; preds = %.lr.ph, %7
  call void @meshopt_computeClusterBounds(ptr dead_on_unwind writable sret(%struct.meshopt_Bounds) align 4 %0, ptr noundef nonnull %8, i64 noundef %9, ptr noundef %4, i64 poison, i64 noundef %6)
  call void @llvm.lifetime.end.p0(i64 6144, ptr nonnull %8) #17
  ret void

.lr.ph:                                           ; preds = %.lr.ph.preheader, %.lr.ph
  %.012 = phi i64 [ %16, %.lr.ph ], [ 0, %.lr.ph.preheader ]
  %10 = getelementptr inbounds nuw i8, ptr %2, i64 %.012
  %11 = load i8, ptr %10, align 1, !tbaa !42
  %12 = zext i8 %11 to i64
  %13 = getelementptr inbounds nuw i32, ptr %1, i64 %12
  %14 = load i32, ptr %13, align 4, !tbaa !16
  %15 = getelementptr inbounds nuw [1536 x i32], ptr %8, i64 0, i64 %.012
  store i32 %14, ptr %15, align 4, !tbaa !16
  %16 = add nuw i64 %.012, 1
  %exitcond.not = icmp eq i64 %16, %umax
  br i1 %exitcond.not, label %._crit_edge, label %.lr.ph, !llvm.loop !73
}